target datalayout = "e-m:e-p270:32:32-p271:32:32-p272:64:64-i64:64-i128:128-f80:128-n8:16:32:64-S128"
target triple = "x86_64-pc-linux-gnu"

%struct.cl_fmap = type { ptr, ptr, ptr, i64, i64, i64, i64, i8, i8, i8, i64, i64, i64, i64, ptr, ptr, ptr, ptr, ptr, ptr, ptr, i8, [16 x i8], i8, [20 x i8], i8, [32 x i8], ptr, ptr }

@.str.224 = private unnamed_addr constant [36 x i8] c"map_sha1: failed to read hash data\0A\00", align 1
@.str.227 = private unnamed_addr constant [37 x i8] c"asn1_map_hash: unsupported hashtype\0A\00", align 1
@.str.228 = private unnamed_addr constant [35 x i8] c"map_md5: failed to read hash data\0A\00", align 1
@.str.229 = private unnamed_addr constant [4 x i8] c"md5\00", align 1
@.str.230 = private unnamed_addr constant [38 x i8] c"map_sha256: failed to read hash data\0A\00", align 1
@.str.231 = private unnamed_addr constant [38 x i8] c"map_sha384: failed to read hash data\0A\00", align 1
@.str.232 = private unnamed_addr constant [38 x i8] c"map_sha512: failed to read hash data\0A\00", align 1

; Function Attrs: inlinehint nounwind uwtable
define internal i64 @fmap_ptr2off(ptr noundef %0, ptr noundef %1) #3 {
  %3 = alloca ptr, align 8
  %4 = alloca ptr, align 8
  store ptr %0, ptr %3, align 8, !tbaa !3
  store ptr %1, ptr %4, align 8, !tbaa !62
  %5 = load ptr, ptr %4, align 8, !tbaa !62
  %6 = load ptr, ptr %3, align 8, !tbaa !3
  %7 = getelementptr inbounds nuw %struct.cl_fmap, ptr %6, i32 0, i32 2
  %8 = load ptr, ptr %7, align 8, !tbaa !106
  %9 = ptrtoint ptr %5 to i64
  %10 = ptrtoint ptr %8 to i64
  %11 = sub i64 %9, %10
  %12 = load ptr, ptr %3, align 8, !tbaa !3
  %13 = getelementptr inbounds nuw %struct.cl_fmap, ptr %12, i32 0, i32 11
  %14 = load i64, ptr %13, align 8, !tbaa !107
  %15 = sub i64 %11, %14
  ret i64 %15
}

; Function Attrs: inlinehint nounwind uwtable
define internal ptr @fmap_need_ptr_once(ptr noundef %0, ptr noundef %1, i64 noundef %2) #3 {
  %4 = alloca ptr, align 8
  %5 = alloca ptr, align 8
  %6 = alloca i64, align 8
  store ptr %0, ptr %4, align 8, !tbaa !3
  store ptr %1, ptr %5, align 8, !tbaa !62
  store i64 %2, ptr %6, align 8, !tbaa !61
  %7 = load ptr, ptr %4, align 8, !tbaa !3
  %8 = getelementptr inbounds nuw %struct.cl_fmap, ptr %7, i32 0, i32 15
  %9 = load ptr, ptr %8, align 8, !tbaa !87
  %10 = load ptr, ptr %4, align 8, !tbaa !3
  %11 = load ptr, ptr %4, align 8, !tbaa !3
  %12 = load ptr, ptr %5, align 8, !tbaa !62
  %13 = call i64 @fmap_ptr2off(ptr noundef %11, ptr noundef %12)
  %14 = load i64, ptr %6, align 8, !tbaa !61
  %15 = call ptr %9(ptr noundef %10, i64 noundef %13, i64 noundef %14, i32 noundef 0)
  ret ptr %15
}

; Function Attrs: nounwind uwtable
define internal i32 @map_sha512(ptr noundef %0, ptr noundef %1, i32 noundef %2, ptr noundef %3) #0 {
  %5 = alloca i32, align 4
  %6 = alloca ptr, align 8
  %7 = alloca ptr, align 8
  %8 = alloca i32, align 4
  %9 = alloca ptr, align 8
  store ptr %0, ptr %6, align 8, !tbaa !3
  store ptr %1, ptr %7, align 8, !tbaa !62
  store i32 %2, ptr %8, align 4, !tbaa !20
  store ptr %3, ptr %9, align 8, !tbaa !66
  %10 = load ptr, ptr %6, align 8, !tbaa !3
  %11 = load ptr, ptr %7, align 8, !tbaa !62
  %12 = load i32, ptr %8, align 4, !tbaa !20
  %13 = zext i32 %12 to i64
  %14 = call ptr @fmap_need_ptr_once(ptr noundef %10, ptr noundef %11, i64 noundef %13)
  %15 = icmp ne ptr %14, null
  br i1 %15, label %17, label %16

16:                                               ; preds = %4
  call void (ptr, ...) @cli_dbgmsg(ptr noundef @.str.232)
  store i32 1, ptr %5, align 4
  br label %25

17:                                               ; preds = %4
  %18 = load ptr, ptr %7, align 8, !tbaa !62
  %19 = load i32, ptr %8, align 4, !tbaa !20
  %20 = zext i32 %19 to i64
  %21 = load ptr, ptr %9, align 8, !tbaa !66
  %22 = call ptr @cl_sha512(ptr noundef %18, i64 noundef %20, ptr noundef %21, ptr noundef null)
  %23 = icmp eq ptr %22, null
  %24 = zext i1 %23 to i32
  store i32 %24, ptr %5, align 4
  br label %25

25:                                               ; preds = %17, %16
  %26 = load i32, ptr %5, align 4
  ret i32 %26
}

; Function Attrs: nounwind uwtable
define internal i32 @map_sha384(ptr noundef %0, ptr noundef %1, i32 noundef %2, ptr noundef %3) #0 {
  %5 = alloca i32, align 4
  %6 = alloca ptr, align 8
  %7 = alloca ptr, align 8
  %8 = alloca i32, align 4
  %9 = alloca ptr, align 8
  store ptr %0, ptr %6, align 8, !tbaa !3
  store ptr %1, ptr %7, align 8, !tbaa !62
  store i32 %2, ptr %8, align 4, !tbaa !20
  store ptr %3, ptr %9, align 8, !tbaa !66
  %10 = load ptr, ptr %6, align 8, !tbaa !3
  %11 = load ptr, ptr %7, align 8, !tbaa !62
  %12 = load i32, ptr %8, align 4, !tbaa !20
  %13 = zext i32 %12 to i64
  %14 = call ptr @fmap_need_ptr_once(ptr noundef %10, ptr noundef %11, i64 noundef %13)
  %15 = icmp ne ptr %14, null
  br i1 %15, label %17, label %16

16:                                               ; preds = %4
  call void (ptr, ...) @cli_dbgmsg(ptr noundef @.str.231)
  store i32 1, ptr %5, align 4
  br label %25

17:                                               ; preds = %4
  %18 = load ptr, ptr %7, align 8, !tbaa !62
  %19 = load i32, ptr %8, align 4, !tbaa !20
  %20 = zext i32 %19 to i64
  %21 = load ptr, ptr %9, align 8, !tbaa !66
  %22 = call ptr @cl_sha384(ptr noundef %18, i64 noundef %20, ptr noundef %21, ptr noundef null)
  %23 = icmp eq ptr %22, null
  %24 = zext i1 %23 to i32
  store i32 %24, ptr %5, align 4
  br label %25

25:                                               ; preds = %17, %16
  %26 = load i32, ptr %5, align 4
  ret i32 %26
}

; Function Attrs: nounwind uwtable
define internal i32 @map_sha256(ptr noundef %0, ptr noundef %1, i32 noundef %2, ptr noundef %3) #0 {
  %5 = alloca i32, align 4
  %6 = alloca ptr, align 8
  %7 = alloca ptr, align 8
  %8 = alloca i32, align 4
  %9 = alloca ptr, align 8
  store ptr %0, ptr %6, align 8, !tbaa !3
  store ptr %1, ptr %7, align 8, !tbaa !62
  store i32 %2, ptr %8, align 4, !tbaa !20
  store ptr %3, ptr %9, align 8, !tbaa !66
  %10 = load ptr, ptr %6, align 8, !tbaa !3
  %11 = load ptr, ptr %7, align 8, !tbaa !62
  %12 = load i32, ptr %8, align 4, !tbaa !20
  %13 = zext i32 %12 to i64
  %14 = call ptr @fmap_need_ptr_once(ptr noundef %10, ptr noundef %11, i64 noundef %13)
  %15 = icmp ne ptr %14, null
  br i1 %15, label %17, label %16

16:                                               ; preds = %4
  call void (ptr, ...) @cli_dbgmsg(ptr noundef @.str.230)
  store i32 1, ptr %5, align 4
  br label %25

17:                                               ; preds = %4
  %18 = load ptr, ptr %7, align 8, !tbaa !62
  %19 = load i32, ptr %8, align 4, !tbaa !20
  %20 = zext i32 %19 to i64
  %21 = load ptr, ptr %9, align 8, !tbaa !66
  %22 = call ptr @cl_sha256(ptr noundef %18, i64 noundef %20, ptr noundef %21, ptr noundef null)
  %23 = icmp eq ptr %22, null
  %24 = zext i1 %23 to i32
  store i32 %24, ptr %5, align 4
  br label %25

25:                                               ; preds = %17, %16
  %26 = load i32, ptr %5, align 4
  ret i32 %26
}

; Function Attrs: nounwind uwtable
define internal i32 @map_md5(ptr noundef %0, ptr noundef %1, i32 noundef %2, ptr noundef %3) #0 {
  %5 = alloca i32, align 4
  %6 = alloca ptr, align 8
  %7 = alloca ptr, align 8
  %8 = alloca i32, align 4
  %9 = alloca ptr, align 8
  store ptr %0, ptr %6, align 8, !tbaa !3
  store ptr %1, ptr %7, align 8, !tbaa !62
  store i32 %2, ptr %8, align 4, !tbaa !20
  store ptr %3, ptr %9, align 8, !tbaa !66
  %10 = load ptr, ptr %6, align 8, !tbaa !3
  %11 = load ptr, ptr %7, align 8, !tbaa !62
  %12 = load i32, ptr %8, align 4, !tbaa !20
  %13 = zext i32 %12 to i64
  %14 = call ptr @fmap_need_ptr_once(ptr noundef %10, ptr noundef %11, i64 noundef %13)
  %15 = icmp ne ptr %14, null
  br i1 %15, label %17, label %16

16:                                               ; preds = %4
  call void (ptr, ...) @cli_dbgmsg(ptr noundef @.str.228)
  store i32 1, ptr %5, align 4
  br label %25

17:                                               ; preds = %4
  %18 = load ptr, ptr %7, align 8, !tbaa !62
  %19 = load i32, ptr %8, align 4, !tbaa !20
  %20 = zext i32 %19 to i64
  %21 = load ptr, ptr %9, align 8, !tbaa !66
  %22 = call ptr @cl_hash_data(ptr noundef @.str.229, ptr noundef %18, i64 noundef %20, ptr noundef %21, ptr noundef null)
  %23 = icmp eq ptr %22, null
  %24 = zext i1 %23 to i32
  store i32 %24, ptr %5, align 4
  br label %25

25:                                               ; preds = %17, %16
  %26 = load i32, ptr %5, align 4
  ret i32 %26
}

; Function Attrs: nounwind uwtable
define internal i32 @map_sha1(ptr noundef %0, ptr noundef %1, i32 noundef %2, ptr noundef %3) #0 {
  %5 = alloca i32, align 4
  %6 = alloca ptr, align 8
  %7 = alloca ptr, align 8
  %8 = alloca i32, align 4
  %9 = alloca ptr, align 8
  store ptr %0, ptr %6, align 8, !tbaa !3
  store ptr %1, ptr %7, align 8, !tbaa !62
  store i32 %2, ptr %8, align 4, !tbaa !20
  store ptr %3, ptr %9, align 8, !tbaa !66
  %10 = load ptr, ptr %6, align 8, !tbaa !3
  %11 = load ptr, ptr %7, align 8, !tbaa !62
  %12 = load i32, ptr %8, align 4, !tbaa !20
  %13 = zext i32 %12 to i64
  %14 = call ptr @fmap_need_ptr_once(ptr noundef %10, ptr noundef %11, i64 noundef %13)
  %15 = icmp ne ptr %14, null
  br i1 %15, label %17, label %16

16:                                               ; preds = %4
  call void (ptr, ...) @cli_dbgmsg(ptr noundef @.str.224)
  store i32 1, ptr %5, align 4
  br label %25

17:                                               ; preds = %4
  %18 = load ptr, ptr %7, align 8, !tbaa !62
  %19 = load i32, ptr %8, align 4, !tbaa !20
  %20 = zext i32 %19 to i64
  %21 = load ptr, ptr %9, align 8, !tbaa !66
  %22 = call ptr @cl_sha1(ptr noundef %18, i64 noundef %20, ptr noundef %21, ptr noundef null)
  %23 = icmp eq ptr %22, null
  %24 = zext i1 %23 to i32
  store i32 %24, ptr %5, align 4
  br label %25

25:                                               ; preds = %17, %16
  %26 = load i32, ptr %5, align 4
  ret i32 %26
}

; Function Attrs: nounwind uwtable
define internal i32 @map_hash(ptr noundef %0, ptr noundef %1, i32 noundef %2, ptr noundef %3, i32 noundef %4) #0 {
  %6 = alloca i32, align 4
  %7 = alloca ptr, align 8
  %8 = alloca ptr, align 8
  %9 = alloca i32, align 4
  %10 = alloca ptr, align 8
  %11 = alloca i32, align 4
  store ptr %0, ptr %7, align 8, !tbaa !3
  store ptr %1, ptr %8, align 8, !tbaa !62
  store i32 %2, ptr %9, align 4, !tbaa !20
  store ptr %3, ptr %10, align 8, !tbaa !66
  store i32 %4, ptr %11, align 4, !tbaa !20
  %12 = load i32, ptr %11, align 4, !tbaa !20
  %13 = icmp eq i32 %12, 1
  br i1 %13, label %14, label %23

14:                                               ; preds = %5
  %15 = load ptr, ptr %7, align 8, !tbaa !3
  %16 = load ptr, ptr %8, align 8, !tbaa !62
  %17 = load i32, ptr %9, align 4, !tbaa !20
  %18 = load ptr, ptr %10, align 8, !tbaa !66
  %19 = call i32 @map_sha1(ptr noundef %15, ptr noundef %16, i32 noundef %17, ptr noundef %18)
  %20 = icmp ne i32 %19, 0
  br i1 %20, label %21, label %22

21:                                               ; preds = %14
  store i32 1, ptr %6, align 4
  br label %77

22:                                               ; preds = %14
  br label %76

23:                                               ; preds = %5
  %24 = load i32, ptr %11, align 4, !tbaa !20
  %25 = icmp eq i32 %24, 2
  br i1 %25, label %26, label %35

26:                                               ; preds = %23
  %27 = load ptr, ptr %7, align 8, !tbaa !3
  %28 = load ptr, ptr %8, align 8, !tbaa !62
  %29 = load i32, ptr %9, align 4, !tbaa !20
  %30 = load ptr, ptr %10, align 8, !tbaa !66
  %31 = call i32 @map_md5(ptr noundef %27, ptr noundef %28, i32 noundef %29, ptr noundef %30)
  %32 = icmp ne i32 %31, 0
  br i1 %32, label %33, label %34

33:                                               ; preds = %26
  store i32 1, ptr %6, align 4
  br label %77

34:                                               ; preds = %26
  br label %75

35:                                               ; preds = %23
  %36 = load i32, ptr %11, align 4, !tbaa !20
  %37 = icmp eq i32 %36, 5
  br i1 %37, label %38, label %47

38:                                               ; preds = %35
  %39 = load ptr, ptr %7, align 8, !tbaa !3
  %40 = load ptr, ptr %8, align 8, !tbaa !62
  %41 = load i32, ptr %9, align 4, !tbaa !20
  %42 = load ptr, ptr %10, align 8, !tbaa !66
  %43 = call i32 @map_sha256(ptr noundef %39, ptr noundef %40, i32 noundef %41, ptr noundef %42)
  %44 = icmp ne i32 %43, 0
  br i1 %44, label %45, label %46

45:                                               ; preds = %38
  store i32 1, ptr %6, align 4
  br label %77

46:                                               ; preds = %38
  br label %74

47:                                               ; preds = %35
  %48 = load i32, ptr %11, align 4, !tbaa !20
  %49 = icmp eq i32 %48, 6
  br i1 %49, label %50, label %59

50:                                               ; preds = %47
  %51 = load ptr, ptr %7, align 8, !tbaa !3
  %52 = load ptr, ptr %8, align 8, !tbaa !62
  %53 = load i32, ptr %9, align 4, !tbaa !20
  %54 = load ptr, ptr %10, align 8, !tbaa !66
  %55 = call i32 @map_sha384(ptr noundef %51, ptr noundef %52, i32 noundef %53, ptr noundef %54)
  %56 = icmp ne i32 %55, 0
  br i1 %56, label %57, label %58

57:                                               ; preds = %50
  store i32 1, ptr %6, align 4
  br label %77

58:                                               ; preds = %50
  br label %73

59:                                               ; preds = %47
  %60 = load i32, ptr %11, align 4, !tbaa !20
  %61 = icmp eq i32 %60, 7
  br i1 %61, label %62, label %71

62:                                               ; preds = %59
  %63 = load ptr, ptr %7, align 8, !tbaa !3
  %64 = load ptr, ptr %8, align 8, !tbaa !62
  %65 = load i32, ptr %9, align 4, !tbaa !20
  %66 = load ptr, ptr %10, align 8, !tbaa !66
  %67 = call i32 @map_sha512(ptr noundef %63, ptr noundef %64, i32 noundef %65, ptr noundef %66)
  %68 = icmp ne i32 %67, 0
  br i1 %68, label %69, label %70

69:                                               ; preds = %62
  store i32 1, ptr %6, align 4
  br label %77

70:                                               ; preds = %62
  br label %72

71:                                               ; preds = %59
  call void (ptr, ...) @cli_dbgmsg(ptr noundef @.str.227)
  store i32 1, ptr %6, align 4
  br label %77

72:                                               ; preds = %70
  br label %73

73:                                               ; preds = %72, %58
  br label %74

74:                                               ; preds = %73, %46
  br label %75

75:                                               ; preds = %74, %34
  br label %76

76:                                               ; preds = %75, %22
  store i32 0, ptr %6, align 4
  br label %77

77:                                               ; preds = %76, %71, %69, %57, %45, %33, %21
  %78 = load i32, ptr %6, align 4
  ret i32 %78
}