; Function Attrs: nounwind uwtable
define internal fastcc range(i32 0, 2) i32 @map_hash(ptr noundef %0, ptr noundef %1, i32 noundef %2, ptr noundef nonnull %3, i32 noundef %4) unnamed_addr #0 {
  switch i32 %4, label %66 [
    i32 1, label %6
    i32 2, label %18
    i32 5, label %30
    i32 6, label %42
    i32 7, label %54
  ]

6:                                                ; preds = %5
  %7 = zext i32 %2 to i64
  %8 = getelementptr inbounds nuw i8, ptr %0, i64 104
  %9 = load ptr, ptr %8, align 8, !tbaa !19
  %10 = getelementptr i8, ptr %0, i64 16
  %.val.i.i = load ptr, ptr %10, align 8, !tbaa !20
  %11 = getelementptr i8, ptr %0, i64 72
  %.val4.i.i = load i64, ptr %11, align 8, !tbaa !21
  %12 = ptrtoint ptr %1 to i64
  %13 = ptrtoint ptr %.val.i.i to i64
  %14 = add i64 %.val4.i.i, %13
  %15 = sub i64 %12, %14
  %16 = tail call ptr %9(ptr noundef %0, i64 noundef %15, i64 noundef range(i64 0, 4294967296) %7, i32 noundef 0) #11
  %.not.i = icmp eq ptr %16, null
  br i1 %.not.i, label %map_sha1.exit.thread, label %map_sha1.exit

map_sha1.exit.thread:                             ; preds = %6
  tail call void (ptr, ...) @cli_dbgmsg(ptr noundef nonnull @.str.224) #11
  br label %68

map_sha1.exit:                                    ; preds = %6
  %17 = tail call ptr @cl_sha1(ptr noundef %1, i64 noundef %7, ptr noundef nonnull %3, ptr noundef null) #11
  %.not59 = icmp eq ptr %17, null
  br i1 %.not59, label %68, label %67

18:                                               ; preds = %5
  %19 = zext i32 %2 to i64
  %20 = getelementptr inbounds nuw i8, ptr %0, i64 104
  %21 = load ptr, ptr %20, align 8, !tbaa !19
  %22 = getelementptr i8, ptr %0, i64 16
  %.val.i.i30 = load ptr, ptr %22, align 8, !tbaa !20
  %23 = getelementptr i8, ptr %0, i64 72
  %.val4.i.i31 = load i64, ptr %23, align 8, !tbaa !21
  %24 = ptrtoint ptr %1 to i64
  %25 = ptrtoint ptr %.val.i.i30 to i64
  %26 = add i64 %.val4.i.i31, %25
  %27 = sub i64 %24, %26
  %28 = tail call ptr %21(ptr noundef %0, i64 noundef %27, i64 noundef range(i64 0, 4294967296) %19, i32 noundef 0) #11
  %.not.i32 = icmp eq ptr %28, null
  br i1 %.not.i32, label %map_md5.exit.thread, label %map_md5.exit

map_md5.exit.thread:                              ; preds = %18
  tail call void (ptr, ...) @cli_dbgmsg(ptr noundef nonnull @.str.228) #11
  br label %68

map_md5.exit:                                     ; preds = %18
  %29 = tail call ptr @cl_hash_data(ptr noundef nonnull @.str.229, ptr noundef %1, i64 noundef %19, ptr noundef nonnull %3, ptr noundef null) #11
  %.not58 = icmp eq ptr %29, null
  br i1 %.not58, label %68, label %67

30:                                               ; preds = %5
  %31 = zext i32 %2 to i64
  %32 = getelementptr inbounds nuw i8, ptr %0, i64 104
  %33 = load ptr, ptr %32, align 8, !tbaa !19
  %34 = getelementptr i8, ptr %0, i64 16
  %.val.i.i34 = load ptr, ptr %34, align 8, !tbaa !20
  %35 = getelementptr i8, ptr %0, i64 72
  %.val4.i.i35 = load i64, ptr %35, align 8, !tbaa !21
  %36 = ptrtoint ptr %1 to i64
  %37 = ptrtoint ptr %.val.i.i34 to i64
  %38 = add i64 %.val4.i.i35, %37
  %39 = sub i64 %36, %38
  %40 = tail call ptr %33(ptr noundef %0, i64 noundef %39, i64 noundef range(i64 0, 4294967296) %31, i32 noundef 0) #11
  %.not.i36 = icmp eq ptr %40, null
  br i1 %.not.i36, label %map_sha256.exit.thread, label %map_sha256.exit

map_sha256.exit.thread:                           ; preds = %30
  tail call void (ptr, ...) @cli_dbgmsg(ptr noundef nonnull @.str.230) #11
  br label %68

map_sha256.exit:                                  ; preds = %30
  %41 = tail call ptr @cl_sha256(ptr noundef %1, i64 noundef %31, ptr noundef nonnull %3, ptr noundef null) #11
  %.not57 = icmp eq ptr %41, null
  br i1 %.not57, label %68, label %67

42:                                               ; preds = %5
  %43 = zext i32 %2 to i64
  %44 = getelementptr inbounds nuw i8, ptr %0, i64 104
  %45 = load ptr, ptr %44, align 8, !tbaa !19
  %46 = getelementptr i8, ptr %0, i64 16
  %.val.i.i38 = load ptr, ptr %46, align 8, !tbaa !20
  %47 = getelementptr i8, ptr %0, i64 72
  %.val4.i.i39 = load i64, ptr %47, align 8, !tbaa !21
  %48 = ptrtoint ptr %1 to i64
  %49 = ptrtoint ptr %.val.i.i38 to i64
  %50 = add i64 %.val4.i.i39, %49
  %51 = sub i64 %48, %50
  %52 = tail call ptr %45(ptr noundef %0, i64 noundef %51, i64 noundef range(i64 0, 4294967296) %43, i32 noundef 0) #11
  %.not.i40 = icmp eq ptr %52, null
  br i1 %.not.i40, label %map_sha384.exit.thread, label %map_sha384.exit

map_sha384.exit.thread:                           ; preds = %42
  tail call void (ptr, ...) @cli_dbgmsg(ptr noundef nonnull @.str.231) #11
  br label %68

map_sha384.exit:                                  ; preds = %42
  %53 = tail call ptr @cl_sha384(ptr noundef %1, i64 noundef %43, ptr noundef nonnull %3, ptr noundef null) #11
  %.not56 = icmp eq ptr %53, null
  br i1 %.not56, label %68, label %67

54:                                               ; preds = %5
  %55 = zext i32 %2 to i64
  %56 = getelementptr inbounds nuw i8, ptr %0, i64 104
  %57 = load ptr, ptr %56, align 8, !tbaa !19
  %58 = getelementptr i8, ptr %0, i64 16
  %.val.i.i42 = load ptr, ptr %58, align 8, !tbaa !20
  %59 = getelementptr i8, ptr %0, i64 72
  %.val4.i.i43 = load i64, ptr %59, align 8, !tbaa !21
  %60 = ptrtoint ptr %1 to i64
  %61 = ptrtoint ptr %.val.i.i42 to i64
  %62 = add i64 %.val4.i.i43, %61
  %63 = sub i64 %60, %62
  %64 = tail call ptr %57(ptr noundef %0, i64 noundef %63, i64 noundef range(i64 0, 4294967296) %55, i32 noundef 0) #11
  %.not.i44 = icmp eq ptr %64, null
  br i1 %.not.i44, label %map_sha512.exit.thread, label %map_sha512.exit

map_sha512.exit.thread:                           ; preds = %54
  tail call void (ptr, ...) @cli_dbgmsg(ptr noundef nonnull @.str.232) #11
  br label %68

map_sha512.exit:                                  ; preds = %54
  %65 = tail call ptr @cl_sha512(ptr noundef %1, i64 noundef %55, ptr noundef nonnull %3, ptr noundef null) #11
  %.not = icmp eq ptr %65, null
  br i1 %.not, label %68, label %67

66:                                               ; preds = %5
  tail call void (ptr, ...) @cli_dbgmsg(ptr noundef nonnull @.str.227) #11
  br label %68

67:                                               ; preds = %map_md5.exit, %map_sha384.exit, %map_sha512.exit, %map_sha256.exit, %map_sha1.exit
  br label %68

68:                                               ; preds = %map_sha512.exit.thread, %map_sha384.exit.thread, %map_sha256.exit.thread, %map_md5.exit.thread, %map_sha1.exit.thread, %map_sha512.exit, %map_sha384.exit, %map_sha256.exit, %map_md5.exit, %map_sha1.exit, %67, %66
  %.0 = phi i32 [ 0, %67 ], [ 1, %66 ], [ 1, %map_sha1.exit ], [ 1, %map_md5.exit ], [ 1, %map_sha256.exit ], [ 1, %map_sha384.exit ], [ 1, %map_sha512.exit ], [ 1, %map_sha1.exit.thread ], [ 1, %map_md5.exit.thread ], [ 1, %map_sha256.exit.thread ], [ 1, %map_sha384.exit.thread ], [ 1, %map_sha512.exit.thread ]
  ret i32 %.0
}